target datalayout = "e-m:e-p270:32:32-p271:32:32-p272:64:64-i64:64-i128:128-f80:128-n8:16:32:64-S128"
target triple = "x86_64-pc-linux-gnu"

%struct.ip_ranges_st = type { i32, ptr, ptr, i32 }
%struct.asn1_string_st = type { i32, i32, ptr, i64 }

@.str.14 = private unnamed_addr constant [24 x i8] c"../openssl/test/v3ext.c\00", align 1
@.str.128 = private unnamed_addr constant [40 x i8] c"addr[i] = sk_IPAddressFamily_new_null()\00", align 1
@.str.129 = private unnamed_addr constant [38 x i8] c"ip1[i] = a2i_IPADDRESS(ranges[i].ip1)\00", align 1
@.str.130 = private unnamed_addr constant [38 x i8] c"ip2[i] = a2i_IPADDRESS(ranges[i].ip2)\00", align 1
@.str.131 = private unnamed_addr constant [80 x i8] c"X509v3_addr_add_range(addr[i], ranges[i].afi, NULL, ip1[i]->data, ip2[i]->data)\00", align 1
@.str.132 = private unnamed_addr constant [42 x i8] c"addrEmpty = sk_IPAddressFamily_new_null()\00", align 1
@.str.133 = private unnamed_addr constant [31 x i8] c"X509v3_addr_subset(NULL, NULL)\00", align 1
@.str.134 = private unnamed_addr constant [34 x i8] c"X509v3_addr_subset(NULL, addr[0])\00", align 1
@.str.135 = private unnamed_addr constant [39 x i8] c"X509v3_addr_subset(addrEmpty, addr[0])\00", align 1
@.str.136 = private unnamed_addr constant [37 x i8] c"X509v3_addr_subset(addr[0], addr[0])\00", align 1
@.str.137 = private unnamed_addr constant [37 x i8] c"X509v3_addr_subset(addr[0], addr[1])\00", align 1
@.str.138 = private unnamed_addr constant [37 x i8] c"X509v3_addr_subset(addr[0], addr[2])\00", align 1
@.str.139 = private unnamed_addr constant [37 x i8] c"X509v3_addr_subset(addr[1], addr[2])\00", align 1
@.str.140 = private unnamed_addr constant [34 x i8] c"X509v3_addr_subset(addr[0], NULL)\00", align 1
@.str.141 = private unnamed_addr constant [37 x i8] c"X509v3_addr_subset(addr[1], addr[0])\00", align 1
@.str.142 = private unnamed_addr constant [37 x i8] c"X509v3_addr_subset(addr[2], addr[1])\00", align 1
@.str.143 = private unnamed_addr constant [39 x i8] c"X509v3_addr_subset(addr[0], addrEmpty)\00", align 1

; Function Attrs: inlinehint nounwind uwtable
define internal ptr @ossl_check_IPAddressFamily_freefunc_type(ptr noundef %0) #4 {
  %2 = alloca ptr, align 8
  store ptr %0, ptr %2, align 8, !tbaa !54
  %3 = load ptr, ptr %2, align 8, !tbaa !54
  ret ptr %3
}

; Function Attrs: inlinehint nounwind uwtable
define internal ptr @ossl_check_IPAddressFamily_sk_type(ptr noundef %0) #4 {
  %2 = alloca ptr, align 8
  store ptr %0, ptr %2, align 8, !tbaa !21
  %3 = load ptr, ptr %2, align 8, !tbaa !21
  ret ptr %3
}

; Function Attrs: nounwind uwtable
define internal i32 @test_addr_subset() #0 {
  %1 = alloca i32, align 4
  %2 = alloca i32, align 4
  %3 = alloca ptr, align 8
  %4 = alloca [3 x ptr], align 16
  %5 = alloca [3 x ptr], align 16
  %6 = alloca [3 x ptr], align 16
  %7 = alloca i32, align 4
  call void @llvm.lifetime.start.p0(i64 4, ptr %1) #6
  call void @llvm.lifetime.start.p0(i64 4, ptr %2) #6
  store i32 0, ptr %2, align 4, !tbaa !13
  call void @llvm.lifetime.start.p0(i64 8, ptr %3) #6
  store ptr null, ptr %3, align 8, !tbaa !21
  call void @llvm.lifetime.start.p0(i64 24, ptr %4) #6
  call void @llvm.memset.p0.i64(ptr align 16 %4, i8 0, i64 24, i1 false)
  call void @llvm.lifetime.start.p0(i64 24, ptr %5) #6
  call void @llvm.memset.p0.i64(ptr align 16 %5, i8 0, i64 24, i1 false)
  call void @llvm.lifetime.start.p0(i64 24, ptr %6) #6
  call void @llvm.memset.p0.i64(ptr align 16 %6, i8 0, i64 24, i1 false)
  call void @llvm.lifetime.start.p0(i64 4, ptr %7) #6
  store i32 3, ptr %7, align 4, !tbaa !13
  store i32 0, ptr %1, align 4, !tbaa !13
  br label %8

8:                                                ; preds = %72, %0
  %9 = load i32, ptr %1, align 4, !tbaa !13
  %10 = load i32, ptr %7, align 4, !tbaa !13
  %11 = icmp slt i32 %9, %10
  br i1 %11, label %12, label %75

12:                                               ; preds = %8
  %13 = call ptr @OPENSSL_sk_new_null()
  %14 = load i32, ptr %1, align 4, !tbaa !13
  %15 = sext i32 %14 to i64
  %16 = getelementptr inbounds [3 x ptr], ptr %4, i64 0, i64 %15
  store ptr %13, ptr %16, align 8, !tbaa !21
  %17 = call i32 @test_ptr(ptr noundef @.str.14, i32 noundef 434, ptr noundef @.str.128, ptr noundef %13)
  %18 = icmp ne i32 %17, 0
  br i1 %18, label %19, label %70

19:                                               ; preds = %12
  %20 = load i32, ptr %1, align 4, !tbaa !13
  %21 = sext i32 %20 to i64
  %22 = getelementptr inbounds [18 x %struct.ip_ranges_st], ptr @ranges, i64 0, i64 %21
  %23 = getelementptr inbounds nuw %struct.ip_ranges_st, ptr %22, i32 0, i32 1
  %24 = load ptr, ptr %23, align 8, !tbaa !23
  %25 = call ptr @a2i_IPADDRESS(ptr noundef %24)
  %26 = load i32, ptr %1, align 4, !tbaa !13
  %27 = sext i32 %26 to i64
  %28 = getelementptr inbounds [3 x ptr], ptr %5, i64 0, i64 %27
  store ptr %25, ptr %28, align 8, !tbaa !17
  %29 = call i32 @test_ptr(ptr noundef @.str.14, i32 noundef 435, ptr noundef @.str.129, ptr noundef %25)
  %30 = icmp ne i32 %29, 0
  br i1 %30, label %31, label %70

31:                                               ; preds = %19
  %32 = load i32, ptr %1, align 4, !tbaa !13
  %33 = sext i32 %32 to i64
  %34 = getelementptr inbounds [18 x %struct.ip_ranges_st], ptr @ranges, i64 0, i64 %33
  %35 = getelementptr inbounds nuw %struct.ip_ranges_st, ptr %34, i32 0, i32 2
  %36 = load ptr, ptr %35, align 16, !tbaa !27
  %37 = call ptr @a2i_IPADDRESS(ptr noundef %36)
  %38 = load i32, ptr %1, align 4, !tbaa !13
  %39 = sext i32 %38 to i64
  %40 = getelementptr inbounds [3 x ptr], ptr %6, i64 0, i64 %39
  store ptr %37, ptr %40, align 8, !tbaa !17
  %41 = call i32 @test_ptr(ptr noundef @.str.14, i32 noundef 436, ptr noundef @.str.130, ptr noundef %37)
  %42 = icmp ne i32 %41, 0
  br i1 %42, label %43, label %70

43:                                               ; preds = %31
  %44 = load i32, ptr %1, align 4, !tbaa !13
  %45 = sext i32 %44 to i64
  %46 = getelementptr inbounds [3 x ptr], ptr %4, i64 0, i64 %45
  %47 = load ptr, ptr %46, align 8, !tbaa !21
  %48 = load i32, ptr %1, align 4, !tbaa !13
  %49 = sext i32 %48 to i64
  %50 = getelementptr inbounds [18 x %struct.ip_ranges_st], ptr @ranges, i64 0, i64 %49
  %51 = getelementptr inbounds nuw %struct.ip_ranges_st, ptr %50, i32 0, i32 0
  %52 = load i32, ptr %51, align 16, !tbaa !29
  %53 = load i32, ptr %1, align 4, !tbaa !13
  %54 = sext i32 %53 to i64
  %55 = getelementptr inbounds [3 x ptr], ptr %5, i64 0, i64 %54
  %56 = load ptr, ptr %55, align 8, !tbaa !17
  %57 = getelementptr inbounds nuw %struct.asn1_string_st, ptr %56, i32 0, i32 2
  %58 = load ptr, ptr %57, align 8, !tbaa !28
  %59 = load i32, ptr %1, align 4, !tbaa !13
  %60 = sext i32 %59 to i64
  %61 = getelementptr inbounds [3 x ptr], ptr %6, i64 0, i64 %60
  %62 = load ptr, ptr %61, align 8, !tbaa !17
  %63 = getelementptr inbounds nuw %struct.asn1_string_st, ptr %62, i32 0, i32 2
  %64 = load ptr, ptr %63, align 8, !tbaa !28
  %65 = call i32 @X509v3_addr_add_range(ptr noundef %47, i32 noundef %52, ptr noundef null, ptr noundef %58, ptr noundef %64)
  %66 = icmp ne i32 %65, 0
  %67 = zext i1 %66 to i32
  %68 = call i32 @test_true(ptr noundef @.str.14, i32 noundef 438, ptr noundef @.str.131, i32 noundef %67)
  %69 = icmp ne i32 %68, 0
  br i1 %69, label %71, label %70

70:                                               ; preds = %43, %31, %19, %12
  br label %182

71:                                               ; preds = %43
  br label %72

72:                                               ; preds = %71
  %73 = load i32, ptr %1, align 4, !tbaa !13
  %74 = add nsw i32 %73, 1
  store i32 %74, ptr %1, align 4, !tbaa !13
  br label %8, !llvm.loop !48

75:                                               ; preds = %8
  %76 = call ptr @OPENSSL_sk_new_null()
  store ptr %76, ptr %3, align 8, !tbaa !21
  %77 = call i32 @test_ptr(ptr noundef @.str.14, i32 noundef 442, ptr noundef @.str.132, ptr noundef %76)
  %78 = icmp ne i32 %77, 0
  br i1 %78, label %79, label %179

79:                                               ; preds = %75
  %80 = call i32 @X509v3_addr_subset(ptr noundef null, ptr noundef null)
  %81 = icmp ne i32 %80, 0
  %82 = zext i1 %81 to i32
  %83 = call i32 @test_true(ptr noundef @.str.14, i32 noundef 443, ptr noundef @.str.133, i32 noundef %82)
  %84 = icmp ne i32 %83, 0
  br i1 %84, label %85, label %179

85:                                               ; preds = %79
  %86 = getelementptr inbounds [3 x ptr], ptr %4, i64 0, i64 0
  %87 = load ptr, ptr %86, align 16, !tbaa !21
  %88 = call i32 @X509v3_addr_subset(ptr noundef null, ptr noundef %87)
  %89 = icmp ne i32 %88, 0
  %90 = zext i1 %89 to i32
  %91 = call i32 @test_true(ptr noundef @.str.14, i32 noundef 444, ptr noundef @.str.134, i32 noundef %90)
  %92 = icmp ne i32 %91, 0
  br i1 %92, label %93, label %179

93:                                               ; preds = %85
  %94 = load ptr, ptr %3, align 8, !tbaa !21
  %95 = getelementptr inbounds [3 x ptr], ptr %4, i64 0, i64 0
  %96 = load ptr, ptr %95, align 16, !tbaa !21
  %97 = call i32 @X509v3_addr_subset(ptr noundef %94, ptr noundef %96)
  %98 = icmp ne i32 %97, 0
  %99 = zext i1 %98 to i32
  %100 = call i32 @test_true(ptr noundef @.str.14, i32 noundef 445, ptr noundef @.str.135, i32 noundef %99)
  %101 = icmp ne i32 %100, 0
  br i1 %101, label %102, label %179

102:                                              ; preds = %93
  %103 = getelementptr inbounds [3 x ptr], ptr %4, i64 0, i64 0
  %104 = load ptr, ptr %103, align 16, !tbaa !21
  %105 = getelementptr inbounds [3 x ptr], ptr %4, i64 0, i64 0
  %106 = load ptr, ptr %105, align 16, !tbaa !21
  %107 = call i32 @X509v3_addr_subset(ptr noundef %104, ptr noundef %106)
  %108 = icmp ne i32 %107, 0
  %109 = zext i1 %108 to i32
  %110 = call i32 @test_true(ptr noundef @.str.14, i32 noundef 446, ptr noundef @.str.136, i32 noundef %109)
  %111 = icmp ne i32 %110, 0
  br i1 %111, label %112, label %179

112:                                              ; preds = %102
  %113 = getelementptr inbounds [3 x ptr], ptr %4, i64 0, i64 0
  %114 = load ptr, ptr %113, align 16, !tbaa !21
  %115 = getelementptr inbounds [3 x ptr], ptr %4, i64 0, i64 1
  %116 = load ptr, ptr %115, align 8, !tbaa !21
  %117 = call i32 @X509v3_addr_subset(ptr noundef %114, ptr noundef %116)
  %118 = icmp ne i32 %117, 0
  %119 = zext i1 %118 to i32
  %120 = call i32 @test_true(ptr noundef @.str.14, i32 noundef 447, ptr noundef @.str.137, i32 noundef %119)
  %121 = icmp ne i32 %120, 0
  br i1 %121, label %122, label %179

122:                                              ; preds = %112
  %123 = getelementptr inbounds [3 x ptr], ptr %4, i64 0, i64 0
  %124 = load ptr, ptr %123, align 16, !tbaa !21
  %125 = getelementptr inbounds [3 x ptr], ptr %4, i64 0, i64 2
  %126 = load ptr, ptr %125, align 16, !tbaa !21
  %127 = call i32 @X509v3_addr_subset(ptr noundef %124, ptr noundef %126)
  %128 = icmp ne i32 %127, 0
  %129 = zext i1 %128 to i32
  %130 = call i32 @test_true(ptr noundef @.str.14, i32 noundef 448, ptr noundef @.str.138, i32 noundef %129)
  %131 = icmp ne i32 %130, 0
  br i1 %131, label %132, label %179

132:                                              ; preds = %122
  %133 = getelementptr inbounds [3 x ptr], ptr %4, i64 0, i64 1
  %134 = load ptr, ptr %133, align 8, !tbaa !21
  %135 = getelementptr inbounds [3 x ptr], ptr %4, i64 0, i64 2
  %136 = load ptr, ptr %135, align 16, !tbaa !21
  %137 = call i32 @X509v3_addr_subset(ptr noundef %134, ptr noundef %136)
  %138 = icmp ne i32 %137, 0
  %139 = zext i1 %138 to i32
  %140 = call i32 @test_true(ptr noundef @.str.14, i32 noundef 449, ptr noundef @.str.139, i32 noundef %139)
  %141 = icmp ne i32 %140, 0
  br i1 %141, label %142, label %179

142:                                              ; preds = %132
  %143 = getelementptr inbounds [3 x ptr], ptr %4, i64 0, i64 0
  %144 = load ptr, ptr %143, align 16, !tbaa !21
  %145 = call i32 @X509v3_addr_subset(ptr noundef %144, ptr noundef null)
  %146 = icmp ne i32 %145, 0
  %147 = zext i1 %146 to i32
  %148 = call i32 @test_false(ptr noundef @.str.14, i32 noundef 450, ptr noundef @.str.140, i32 noundef %147)
  %149 = icmp ne i32 %148, 0
  br i1 %149, label %150, label %179

150:                                              ; preds = %142
  %151 = getelementptr inbounds [3 x ptr], ptr %4, i64 0, i64 1
  %152 = load ptr, ptr %151, align 8, !tbaa !21
  %153 = getelementptr inbounds [3 x ptr], ptr %4, i64 0, i64 0
  %154 = load ptr, ptr %153, align 16, !tbaa !21
  %155 = call i32 @X509v3_addr_subset(ptr noundef %152, ptr noundef %154)
  %156 = icmp ne i32 %155, 0
  %157 = zext i1 %156 to i32
  %158 = call i32 @test_false(ptr noundef @.str.14, i32 noundef 451, ptr noundef @.str.141, i32 noundef %157)
  %159 = icmp ne i32 %158, 0
  br i1 %159, label %160, label %179

160:                                              ; preds = %150
  %161 = getelementptr inbounds [3 x ptr], ptr %4, i64 0, i64 2
  %162 = load ptr, ptr %161, align 16, !tbaa !21
  %163 = getelementptr inbounds [3 x ptr], ptr %4, i64 0, i64 1
  %164 = load ptr, ptr %163, align 8, !tbaa !21
  %165 = call i32 @X509v3_addr_subset(ptr noundef %162, ptr noundef %164)
  %166 = icmp ne i32 %165, 0
  %167 = zext i1 %166 to i32
  %168 = call i32 @test_false(ptr noundef @.str.14, i32 noundef 452, ptr noundef @.str.142, i32 noundef %167)
  %169 = icmp ne i32 %168, 0
  br i1 %169, label %170, label %179

170:                                              ; preds = %160
  %171 = getelementptr inbounds [3 x ptr], ptr %4, i64 0, i64 0
  %172 = load ptr, ptr %171, align 16, !tbaa !21
  %173 = load ptr, ptr %3, align 8, !tbaa !21
  %174 = call i32 @X509v3_addr_subset(ptr noundef %172, ptr noundef %173)
  %175 = icmp ne i32 %174, 0
  %176 = zext i1 %175 to i32
  %177 = call i32 @test_false(ptr noundef @.str.14, i32 noundef 453, ptr noundef @.str.143, i32 noundef %176)
  %178 = icmp ne i32 %177, 0
  br label %179

179:                                              ; preds = %170, %160, %150, %142, %132, %122, %112, %102, %93, %85, %79, %75
  %180 = phi i1 [ false, %160 ], [ false, %150 ], [ false, %142 ], [ false, %132 ], [ false, %122 ], [ false, %112 ], [ false, %102 ], [ false, %93 ], [ false, %85 ], [ false, %79 ], [ false, %75 ], [ %178, %170 ]
  %181 = zext i1 %180 to i32
  store i32 %181, ptr %2, align 4, !tbaa !13
  br label %182

182:                                              ; preds = %179, %70
  %183 = load ptr, ptr %3, align 8, !tbaa !21
  %184 = call ptr @ossl_check_IPAddressFamily_sk_type(ptr noundef %183)
  %185 = call ptr @ossl_check_IPAddressFamily_freefunc_type(ptr noundef @IPAddressFamily_free)
  call void @OPENSSL_sk_pop_free(ptr noundef %184, ptr noundef %185)
  store i32 0, ptr %1, align 4, !tbaa !13
  br label %186

186:                                              ; preds = %205, %182
  %187 = load i32, ptr %1, align 4, !tbaa !13
  %188 = load i32, ptr %7, align 4, !tbaa !13
  %189 = icmp slt i32 %187, %188
  br i1 %189, label %190, label %208

190:                                              ; preds = %186
  %191 = load i32, ptr %1, align 4, !tbaa !13
  %192 = sext i32 %191 to i64
  %193 = getelementptr inbounds [3 x ptr], ptr %4, i64 0, i64 %192
  %194 = load ptr, ptr %193, align 8, !tbaa !21
  %195 = call ptr @ossl_check_IPAddressFamily_sk_type(ptr noundef %194)
  %196 = call ptr @ossl_check_IPAddressFamily_freefunc_type(ptr noundef @IPAddressFamily_free)
  call void @OPENSSL_sk_pop_free(ptr noundef %195, ptr noundef %196)
  %197 = load i32, ptr %1, align 4, !tbaa !13
  %198 = sext i32 %197 to i64
  %199 = getelementptr inbounds [3 x ptr], ptr %5, i64 0, i64 %198
  %200 = load ptr, ptr %199, align 8, !tbaa !17
  call void @ASN1_OCTET_STRING_free(ptr noundef %200)
  %201 = load i32, ptr %1, align 4, !tbaa !13
  %202 = sext i32 %201 to i64
  %203 = getelementptr inbounds [3 x ptr], ptr %6, i64 0, i64 %202
  %204 = load ptr, ptr %203, align 8, !tbaa !17
  call void @ASN1_OCTET_STRING_free(ptr noundef %204)
  br label %205

205:                                              ; preds = %190
  %206 = load i32, ptr %1, align 4, !tbaa !13
  %207 = add nsw i32 %206, 1
  store i32 %207, ptr %1, align 4, !tbaa !13
  br label %186, !llvm.loop !49

208:                                              ; preds = %186
  %209 = load i32, ptr %2, align 4, !tbaa !13
  call void @llvm.lifetime.end.p0(i64 4, ptr %7) #6
  call void @llvm.lifetime.end.p0(i64 24, ptr %6) #6
  call void @llvm.lifetime.end.p0(i64 24, ptr %5) #6
  call void @llvm.lifetime.end.p0(i64 24, ptr %4) #6
  call void @llvm.lifetime.end.p0(i64 8, ptr %3) #6
  call void @llvm.lifetime.end.p0(i64 4, ptr %2) #6
  call void @llvm.lifetime.end.p0(i64 4, ptr %1) #6
  ret i32 %209
}