; Function Attrs: nounwind uwtable
define internal range(i32 0, 2) i32 @test_addr_subset() #1 {
  %1 = alloca [3 x ptr], align 16
  %2 = alloca [3 x ptr], align 16
  %3 = alloca [3 x ptr], align 16
  call void @llvm.lifetime.start.p0(i64 24, ptr nonnull %1) #6
  call void @llvm.memset.p0.i64(ptr noundef nonnull align 16 dereferenceable(24) %1, i8 0, i64 24, i1 false)
  call void @llvm.lifetime.start.p0(i64 24, ptr nonnull %2) #6
  call void @llvm.memset.p0.i64(ptr noundef nonnull align 16 dereferenceable(24) %2, i8 0, i64 24, i1 false)
  call void @llvm.lifetime.start.p0(i64 24, ptr nonnull %3) #6
  call void @llvm.memset.p0.i64(ptr noundef nonnull align 16 dereferenceable(24) %3, i8 0, i64 24, i1 false)
  br label %5

4:                                                ; preds = %22
  %indvars.iv.next = add nuw nsw i64 %indvars.iv, 1
  %exitcond.not = icmp eq i64 %indvars.iv.next, 3
  br i1 %exitcond.not, label %32, label %5, !llvm.loop !35

5:                                                ; preds = %0, %4
  %indvars.iv = phi i64 [ 0, %0 ], [ %indvars.iv.next, %4 ]
  %6 = tail call ptr @OPENSSL_sk_new_null() #6
  %7 = getelementptr inbounds nuw [3 x ptr], ptr %1, i64 0, i64 %indvars.iv
  store ptr %6, ptr %7, align 8, !tbaa !36
  %8 = tail call i32 @test_ptr(ptr noundef nonnull @.str.14, i32 noundef 434, ptr noundef nonnull @.str.128, ptr noundef %6) #6
  %.not33 = icmp eq i32 %8, 0
  br i1 %.not33, label %.loopexit, label %9

9:                                                ; preds = %5
  %10 = getelementptr inbounds nuw [18 x %struct.ip_ranges_st], ptr @ranges, i64 0, i64 %indvars.iv
  %11 = getelementptr inbounds nuw i8, ptr %10, i64 8
  %12 = load ptr, ptr %11, align 8, !tbaa !9
  %13 = tail call ptr @a2i_IPADDRESS(ptr noundef %12) #6
  %14 = getelementptr inbounds nuw [3 x ptr], ptr %2, i64 0, i64 %indvars.iv
  store ptr %13, ptr %14, align 8, !tbaa !38
  %15 = tail call i32 @test_ptr(ptr noundef nonnull @.str.14, i32 noundef 435, ptr noundef nonnull @.str.129, ptr noundef %13) #6
  %.not34 = icmp eq i32 %15, 0
  br i1 %.not34, label %.loopexit, label %16

16:                                               ; preds = %9
  %17 = getelementptr inbounds nuw i8, ptr %10, i64 16
  %18 = load ptr, ptr %17, align 16, !tbaa !15
  %19 = tail call ptr @a2i_IPADDRESS(ptr noundef %18) #6
  %20 = getelementptr inbounds nuw [3 x ptr], ptr %3, i64 0, i64 %indvars.iv
  store ptr %19, ptr %20, align 8, !tbaa !38
  %21 = tail call i32 @test_ptr(ptr noundef nonnull @.str.14, i32 noundef 436, ptr noundef nonnull @.str.130, ptr noundef %19) #6
  %.not35 = icmp eq i32 %21, 0
  br i1 %.not35, label %.loopexit, label %22

22:                                               ; preds = %16
  %23 = load i32, ptr %10, align 16, !tbaa !17
  %24 = getelementptr inbounds nuw i8, ptr %13, i64 8
  %25 = load ptr, ptr %24, align 8, !tbaa !16
  %26 = getelementptr inbounds nuw i8, ptr %19, i64 8
  %27 = load ptr, ptr %26, align 8, !tbaa !16
  %28 = tail call i32 @X509v3_addr_add_range(ptr noundef %6, i32 noundef %23, ptr noundef null, ptr noundef %25, ptr noundef %27) #6
  %29 = icmp ne i32 %28, 0
  %30 = zext i1 %29 to i32
  %31 = tail call i32 @test_true(ptr noundef nonnull @.str.14, i32 noundef 438, ptr noundef nonnull @.str.131, i32 noundef %30) #6
  %.not36 = icmp eq i32 %31, 0
  br i1 %.not36, label %.loopexit, label %4

32:                                               ; preds = %4
  %33 = tail call ptr @OPENSSL_sk_new_null() #6
  %34 = tail call i32 @test_ptr(ptr noundef nonnull @.str.14, i32 noundef 442, ptr noundef nonnull @.str.132, ptr noundef %33) #6
  %.not = icmp eq i32 %34, 0
  br i1 %.not, label %.loopexit, label %35

35:                                               ; preds = %32
  %36 = tail call i32 @X509v3_addr_subset(ptr noundef null, ptr noundef null) #6
  %37 = icmp ne i32 %36, 0
  %38 = zext i1 %37 to i32
  %39 = tail call i32 @test_true(ptr noundef nonnull @.str.14, i32 noundef 443, ptr noundef nonnull @.str.133, i32 noundef %38) #6
  %.not23 = icmp eq i32 %39, 0
  br i1 %.not23, label %.loopexit, label %40

40:                                               ; preds = %35
  %41 = load ptr, ptr %1, align 16, !tbaa !36
  %42 = tail call i32 @X509v3_addr_subset(ptr noundef null, ptr noundef %41) #6
  %43 = icmp ne i32 %42, 0
  %44 = zext i1 %43 to i32
  %45 = tail call i32 @test_true(ptr noundef nonnull @.str.14, i32 noundef 444, ptr noundef nonnull @.str.134, i32 noundef %44) #6
  %.not24 = icmp eq i32 %45, 0
  br i1 %.not24, label %.loopexit, label %46

46:                                               ; preds = %40
  %47 = tail call i32 @X509v3_addr_subset(ptr noundef %33, ptr noundef %41) #6
  %48 = icmp ne i32 %47, 0
  %49 = zext i1 %48 to i32
  %50 = tail call i32 @test_true(ptr noundef nonnull @.str.14, i32 noundef 445, ptr noundef nonnull @.str.135, i32 noundef %49) #6
  %.not25 = icmp eq i32 %50, 0
  br i1 %.not25, label %.loopexit, label %51

51:                                               ; preds = %46
  %52 = tail call i32 @X509v3_addr_subset(ptr noundef %41, ptr noundef %41) #6
  %53 = icmp ne i32 %52, 0
  %54 = zext i1 %53 to i32
  %55 = tail call i32 @test_true(ptr noundef nonnull @.str.14, i32 noundef 446, ptr noundef nonnull @.str.136, i32 noundef %54) #6
  %.not26 = icmp eq i32 %55, 0
  br i1 %.not26, label %.loopexit, label %56

56:                                               ; preds = %51
  %57 = getelementptr inbounds nuw i8, ptr %1, i64 8
  %58 = load ptr, ptr %57, align 8, !tbaa !36
  %59 = tail call i32 @X509v3_addr_subset(ptr noundef %41, ptr noundef %58) #6
  %60 = icmp ne i32 %59, 0
  %61 = zext i1 %60 to i32
  %62 = tail call i32 @test_true(ptr noundef nonnull @.str.14, i32 noundef 447, ptr noundef nonnull @.str.137, i32 noundef %61) #6
  %.not27 = icmp eq i32 %62, 0
  br i1 %.not27, label %.loopexit, label %63

63:                                               ; preds = %56
  %64 = getelementptr inbounds nuw i8, ptr %1, i64 16
  %65 = load ptr, ptr %64, align 16, !tbaa !36
  %66 = tail call i32 @X509v3_addr_subset(ptr noundef %41, ptr noundef %65) #6
  %67 = icmp ne i32 %66, 0
  %68 = zext i1 %67 to i32
  %69 = tail call i32 @test_true(ptr noundef nonnull @.str.14, i32 noundef 448, ptr noundef nonnull @.str.138, i32 noundef %68) #6
  %.not28 = icmp eq i32 %69, 0
  br i1 %.not28, label %.loopexit, label %70

70:                                               ; preds = %63
  %71 = tail call i32 @X509v3_addr_subset(ptr noundef %58, ptr noundef %65) #6
  %72 = icmp ne i32 %71, 0
  %73 = zext i1 %72 to i32
  %74 = tail call i32 @test_true(ptr noundef nonnull @.str.14, i32 noundef 449, ptr noundef nonnull @.str.139, i32 noundef %73) #6
  %.not29 = icmp eq i32 %74, 0
  br i1 %.not29, label %.loopexit, label %75

75:                                               ; preds = %70
  %76 = tail call i32 @X509v3_addr_subset(ptr noundef %41, ptr noundef null) #6
  %77 = icmp ne i32 %76, 0
  %78 = zext i1 %77 to i32
  %79 = tail call i32 @test_false(ptr noundef nonnull @.str.14, i32 noundef 450, ptr noundef nonnull @.str.140, i32 noundef %78) #6
  %.not30 = icmp eq i32 %79, 0
  br i1 %.not30, label %.loopexit, label %80

80:                                               ; preds = %75
  %81 = tail call i32 @X509v3_addr_subset(ptr noundef %58, ptr noundef %41) #6
  %82 = icmp ne i32 %81, 0
  %83 = zext i1 %82 to i32
  %84 = tail call i32 @test_false(ptr noundef nonnull @.str.14, i32 noundef 451, ptr noundef nonnull @.str.141, i32 noundef %83) #6
  %.not31 = icmp eq i32 %84, 0
  br i1 %.not31, label %.loopexit, label %85

85:                                               ; preds = %80
  %86 = tail call i32 @X509v3_addr_subset(ptr noundef %65, ptr noundef %58) #6
  %87 = icmp ne i32 %86, 0
  %88 = zext i1 %87 to i32
  %89 = tail call i32 @test_false(ptr noundef nonnull @.str.14, i32 noundef 452, ptr noundef nonnull @.str.142, i32 noundef %88) #6
  %.not32 = icmp eq i32 %89, 0
  br i1 %.not32, label %.loopexit, label %90

90:                                               ; preds = %85
  %91 = tail call i32 @X509v3_addr_subset(ptr noundef %41, ptr noundef %33) #6
  %92 = icmp ne i32 %91, 0
  %93 = zext i1 %92 to i32
  %94 = tail call i32 @test_false(ptr noundef nonnull @.str.14, i32 noundef 453, ptr noundef nonnull @.str.143, i32 noundef %93) #6
  %95 = icmp ne i32 %94, 0
  %96 = zext i1 %95 to i32
  br label %.loopexit

.loopexit:                                        ; preds = %5, %9, %16, %22, %32, %35, %40, %46, %51, %56, %63, %70, %75, %80, %85, %90
  %.022 = phi i32 [ 0, %85 ], [ 0, %80 ], [ 0, %75 ], [ 0, %70 ], [ 0, %63 ], [ 0, %56 ], [ 0, %51 ], [ 0, %46 ], [ 0, %40 ], [ 0, %35 ], [ 0, %32 ], [ %96, %90 ], [ 0, %22 ], [ 0, %16 ], [ 0, %9 ], [ 0, %5 ]
  %.021 = phi ptr [ %33, %85 ], [ %33, %80 ], [ %33, %75 ], [ %33, %70 ], [ %33, %63 ], [ %33, %56 ], [ %33, %51 ], [ %33, %46 ], [ %33, %40 ], [ %33, %35 ], [ %33, %32 ], [ %33, %90 ], [ null, %22 ], [ null, %16 ], [ null, %9 ], [ null, %5 ]
  tail call void @OPENSSL_sk_pop_free(ptr noundef %.021, ptr noundef nonnull @IPAddressFamily_free) #6
  br label %97

97:                                               ; preds = %.loopexit, %97
  %indvars.iv40 = phi i64 [ 0, %.loopexit ], [ %indvars.iv.next41, %97 ]
  %98 = getelementptr inbounds nuw [3 x ptr], ptr %1, i64 0, i64 %indvars.iv40
  %99 = load ptr, ptr %98, align 8, !tbaa !36
  tail call void @OPENSSL_sk_pop_free(ptr noundef %99, ptr noundef nonnull @IPAddressFamily_free) #6
  %100 = getelementptr inbounds nuw [3 x ptr], ptr %2, i64 0, i64 %indvars.iv40
  %101 = load ptr, ptr %100, align 8, !tbaa !38
  tail call void @ASN1_OCTET_STRING_free(ptr noundef %101) #6
  %102 = getelementptr inbounds nuw [3 x ptr], ptr %3, i64 0, i64 %indvars.iv40
  %103 = load ptr, ptr %102, align 8, !tbaa !38
  tail call void @ASN1_OCTET_STRING_free(ptr noundef %103) #6
  %indvars.iv.next41 = add nuw nsw i64 %indvars.iv40, 1
  %exitcond43.not = icmp eq i64 %indvars.iv.next41, 3
  br i1 %exitcond43.not, label %104, label %97, !llvm.loop !39

104:                                              ; preds = %97
  call void @llvm.lifetime.end.p0(i64 24, ptr nonnull %3) #6
  call void @llvm.lifetime.end.p0(i64 24, ptr nonnull %2) #6
  call void @llvm.lifetime.end.p0(i64 24, ptr nonnull %1) #6
  ret i32 %.022
}